target datalayout = "e-m:e-p270:32:32-p271:32:32-p272:64:64-i64:64-i128:128-f80:128-n8:16:32:64-S128"
target triple = "x86_64-pc-linux-gnu"

%struct.evp_method_data_st = type { ptr, i32, i32, ptr, ptr, ptr, i8, ptr, ptr, ptr }

; Function Attrs: nounwind uwtable
define internal void @dealloc_tmp_evp_method_store(ptr noundef %0) #0 {
  %2 = alloca ptr, align 8
  store ptr %0, ptr %2, align 8, !tbaa !12
  %3 = load ptr, ptr %2, align 8, !tbaa !12
  %4 = icmp ne ptr %3, null
  br i1 %4, label %5, label %7

5:                                                ; preds = %1
  %6 = load ptr, ptr %2, align 8, !tbaa !12
  call void @ossl_method_store_free(ptr noundef %6)
  br label %7

7:                                                ; preds = %5, %1
  ret void
}

; Function Attrs: nounwind uwtable
define ptr @evp_generic_fetch(ptr noundef %0, i32 noundef %1, ptr noundef %2, ptr noundef %3, ptr noundef %4, ptr noundef %5, ptr noundef %6) #0 {
  %8 = alloca ptr, align 8
  %9 = alloca i32, align 4
  %10 = alloca ptr, align 8
  %11 = alloca ptr, align 8
  %12 = alloca ptr, align 8
  %13 = alloca ptr, align 8
  %14 = alloca ptr, align 8
  %15 = alloca %struct.evp_method_data_st, align 8
  %16 = alloca ptr, align 8
  store ptr %0, ptr %8, align 8, !tbaa !3
  store i32 %1, ptr %9, align 4, !tbaa !8
  store ptr %2, ptr %10, align 8, !tbaa !10
  store ptr %3, ptr %11, align 8, !tbaa !10
  store ptr %4, ptr %12, align 8, !tbaa !12
  store ptr %5, ptr %13, align 8, !tbaa !12
  store ptr %6, ptr %14, align 8, !tbaa !12
  call void @llvm.lifetime.start.p0(i64 72, ptr %15) #6
  call void @llvm.lifetime.start.p0(i64 8, ptr %16) #6
  %17 = load ptr, ptr %8, align 8, !tbaa !3
  %18 = getelementptr inbounds nuw %struct.evp_method_data_st, ptr %15, i32 0, i32 0
  store ptr %17, ptr %18, align 8, !tbaa !13
  %19 = getelementptr inbounds nuw %struct.evp_method_data_st, ptr %15, i32 0, i32 5
  store ptr null, ptr %19, align 8, !tbaa !16
  %20 = load i32, ptr %9, align 4, !tbaa !8
  %21 = load ptr, ptr %10, align 8, !tbaa !10
  %22 = load ptr, ptr %11, align 8, !tbaa !10
  %23 = load ptr, ptr %12, align 8, !tbaa !12
  %24 = load ptr, ptr %13, align 8, !tbaa !12
  %25 = load ptr, ptr %14, align 8, !tbaa !12
  %26 = call ptr @inner_evp_generic_fetch(ptr noundef %15, ptr noundef null, i32 noundef %20, ptr noundef %21, ptr noundef %22, ptr noundef %23, ptr noundef %24, ptr noundef %25)
  store ptr %26, ptr %16, align 8, !tbaa !12
  %27 = getelementptr inbounds nuw %struct.evp_method_data_st, ptr %15, i32 0, i32 5
  %28 = load ptr, ptr %27, align 8, !tbaa !16
  call void @dealloc_tmp_evp_method_store(ptr noundef %28)
  %29 = load ptr, ptr %16, align 8, !tbaa !12
  call void @llvm.lifetime.end.p0(i64 8, ptr %16) #6
  call void @llvm.lifetime.end.p0(i64 72, ptr %15) #6
  ret ptr %29
}