; Function Attrs: nounwind uwtable
define ptr @evp_generic_fetch(ptr noundef %0, i32 noundef %1, ptr noundef %2, ptr noundef %3, ptr noundef %4, ptr noundef %5, ptr noundef %6) local_unnamed_addr #0 {
  %8 = alloca %struct.evp_method_data_st, align 8
  call void @llvm.lifetime.start.p0(i64 72, ptr nonnull %8) #5
  store ptr %0, ptr %8, align 8, !tbaa !3
  %9 = getelementptr inbounds nuw i8, ptr %8, i64 32
  store ptr null, ptr %9, align 8, !tbaa !12
  %10 = call fastcc ptr @inner_evp_generic_fetch(ptr noundef %8, ptr noundef null, i32 noundef %1, ptr noundef %2, ptr noundef %3, ptr noundef %4, ptr noundef %5, ptr noundef %6)
  %11 = load ptr, ptr %9, align 8, !tbaa !12
  %.not.i = icmp eq ptr %11, null
  br i1 %.not.i, label %dealloc_tmp_evp_method_store.exit, label %12

12:                                               ; preds = %7
  call void @ossl_method_store_free(ptr noundef nonnull %11) #5
  br label %dealloc_tmp_evp_method_store.exit

dealloc_tmp_evp_method_store.exit:                ; preds = %7, %12
  call void @llvm.lifetime.end.p0(i64 72, ptr nonnull %8) #5
  ret ptr %10
}